target datalayout = "e-m:e-p270:32:32-p271:32:32-p272:64:64-i64:64-i128:128-f80:128-n8:16:32:64-S128"
target triple = "x86_64-pc-linux-gnu"

%struct.expert_field = type { i32, i32 }

@hf_chld_mode = internal global i32 0, align 4
@hf_chld_mode_1x = internal global i32 0, align 4
@hf_chld_mode_2x = internal global i32 0, align 4
@hf_chld_supported_modes = internal global i32 0, align 4
@ei_chld_mode = internal global %struct.expert_field zeroinitializer, align 4

; Function Attrs: alwaysinline nounwind
define internal ptr @memcpy.inline(ptr noalias %0, ptr noalias %1, i64 %2) #5 {
  %4 = alloca ptr, align 8
  %5 = alloca ptr, align 8
  %6 = alloca i64, align 8
  store ptr %0, ptr %4, align 8
  store ptr %1, ptr %5, align 8
  store i64 %2, ptr %6, align 8
  %7 = load ptr, ptr %4, align 8
  %8 = load ptr, ptr %5, align 8
  %9 = load i64, ptr %6, align 8
  %10 = load ptr, ptr %4, align 8
  %11 = call i64 @llvm.objectsize.i64.p0(ptr %10, i1 false, i1 true, i1 true)
  %12 = call ptr @__memcpy_chk(ptr noundef %7, ptr noundef %8, i64 noundef %9, i64 noundef %11) #11
  ret ptr %12
}

; Function Attrs: null_pointer_is_valid sspstrong uwtable
define internal i32 @get_uint_parameter(ptr noundef %0, i32 noundef %1) #0 {
  %3 = alloca ptr, align 8
  %4 = alloca i32, align 4
  %5 = alloca i32, align 4
  %6 = alloca ptr, align 8
  store ptr %0, ptr %3, align 8
  store i32 %1, ptr %4, align 4
  call void @llvm.lifetime.start.p0(i64 4, ptr %5) #11
  call void @llvm.lifetime.start.p0(i64 8, ptr %6) #11
  %7 = call ptr @wmem_packet_scope()
  %8 = load i32, ptr %4, align 4
  %9 = add i32 %8, 1
  %10 = sext i32 %9 to i64
  %11 = call noalias ptr @wmem_alloc(ptr noundef %7, i64 noundef %10) #12
  store ptr %11, ptr %6, align 8
  %12 = load ptr, ptr %6, align 8
  %13 = load ptr, ptr %3, align 8
  %14 = load i32, ptr %4, align 4
  %15 = sext i32 %14 to i64
  %16 = call ptr @memcpy.inline(ptr noundef %12, ptr noundef %13, i64 noundef %15) #11
  %17 = load ptr, ptr %6, align 8
  %18 = load i32, ptr %4, align 4
  %19 = sext i32 %18 to i64
  %20 = getelementptr i8, ptr %17, i64 %19
  store i8 0, ptr %20, align 1
  %21 = load ptr, ptr %6, align 8
  %22 = call i64 @g_ascii_strtoull(ptr noundef %21, ptr noundef null, i32 noundef 10)
  %23 = trunc i64 %22 to i32
  store i32 %23, ptr %5, align 4
  %24 = load i32, ptr %5, align 4
  call void @llvm.lifetime.end.p0(i64 8, ptr %6) #11
  call void @llvm.lifetime.end.p0(i64 4, ptr %5) #11
  ret i32 %24
}

; Function Attrs: nounwind null_pointer_is_valid sspstrong uwtable
define internal zeroext i1 @check_chld(i32 noundef %0, i16 noundef zeroext %1) #10 {
  %3 = alloca i1, align 1
  %4 = alloca i32, align 4
  %5 = alloca i16, align 2
  store i32 %0, ptr %4, align 4
  store i16 %1, ptr %5, align 2
  %6 = load i32, ptr %4, align 4
  %7 = icmp eq i32 %6, 2
  br i1 %7, label %8, label %17

8:                                                ; preds = %2
  %9 = load i16, ptr %5, align 2
  %10 = zext i16 %9 to i32
  %11 = icmp eq i32 %10, 61
  br i1 %11, label %16, label %12

12:                                               ; preds = %8
  %13 = load i16, ptr %5, align 2
  %14 = zext i16 %13 to i32
  %15 = icmp eq i32 %14, 15679
  br i1 %15, label %16, label %17

16:                                               ; preds = %12, %8
  store i1 true, ptr %3, align 1
  br label %26

17:                                               ; preds = %12, %2
  %18 = load i32, ptr %4, align 4
  %19 = icmp eq i32 %18, 1
  br i1 %19, label %20, label %25

20:                                               ; preds = %17
  %21 = load i16, ptr %5, align 2
  %22 = zext i16 %21 to i32
  %23 = icmp eq i32 %22, 58
  br i1 %23, label %24, label %25

24:                                               ; preds = %20
  store i1 true, ptr %3, align 1
  br label %26

25:                                               ; preds = %20, %17
  store i1 false, ptr %3, align 1
  br label %26

26:                                               ; preds = %25, %24, %16
  %27 = load i1, ptr %3, align 1
  ret i1 %27
}

; Function Attrs: null_pointer_is_valid sspstrong uwtable
define internal zeroext i1 @dissect_chld_parameter(ptr noundef %0, ptr noundef %1, ptr noundef %2, i32 noundef %3, i32 noundef %4, i16 noundef zeroext %5, ptr noundef %6, i32 noundef %7, i32 noundef %8, ptr noundef %9) #0 {
  %11 = alloca i1, align 1
  %12 = alloca ptr, align 8
  %13 = alloca ptr, align 8
  %14 = alloca ptr, align 8
  %15 = alloca i32, align 4
  %16 = alloca i32, align 4
  %17 = alloca i16, align 2
  %18 = alloca ptr, align 8
  %19 = alloca i32, align 4
  %20 = alloca i32, align 4
  %21 = alloca ptr, align 8
  %22 = alloca i32, align 4
  %23 = alloca i32, align 4
  store ptr %0, ptr %12, align 8
  store ptr %1, ptr %13, align 8
  store ptr %2, ptr %14, align 8
  store i32 %3, ptr %15, align 4
  store i32 %4, ptr %16, align 4
  store i16 %5, ptr %17, align 2
  store ptr %6, ptr %18, align 8
  store i32 %7, ptr %19, align 4
  store i32 %8, ptr %20, align 4
  store ptr %9, ptr %21, align 8
  call void @llvm.lifetime.start.p0(i64 4, ptr %22) #11
  %24 = load i32, ptr %16, align 4
  %25 = load i16, ptr %17, align 2
  %26 = call zeroext i1 @check_chld(i32 noundef %24, i16 noundef zeroext %25)
  br i1 %26, label %28, label %27

27:                                               ; preds = %10
  store i1 false, ptr %11, align 1
  store i32 1, ptr %23, align 4
  br label %105

28:                                               ; preds = %10
  %29 = load i32, ptr %16, align 4
  %30 = icmp eq i32 %29, 2
  br i1 %30, label %31, label %98

31:                                               ; preds = %28
  %32 = load i16, ptr %17, align 2
  %33 = zext i16 %32 to i32
  %34 = icmp eq i32 %33, 61
  br i1 %34, label %35, label %98

35:                                               ; preds = %31
  %36 = load i32, ptr %19, align 4
  %37 = icmp eq i32 %36, 0
  br i1 %37, label %38, label %98

38:                                               ; preds = %35
  %39 = load ptr, ptr %18, align 8
  %40 = call i32 @get_uint_parameter(ptr noundef %39, i32 noundef 1)
  store i32 %40, ptr %22, align 4
  %41 = load i32, ptr %20, align 4
  %42 = icmp sge i32 %41, 2
  br i1 %42, label %43, label %90

43:                                               ; preds = %38
  %44 = load ptr, ptr %12, align 8
  %45 = load i32, ptr %15, align 4
  %46 = add i32 %45, 1
  %47 = call zeroext i8 @tvb_get_uint8(ptr noundef %44, i32 noundef %46)
  %48 = zext i8 %47 to i32
  %49 = icmp eq i32 %48, 120
  br i1 %49, label %50, label %72

50:                                               ; preds = %43
  %51 = load i32, ptr %22, align 4
  %52 = icmp eq i32 %51, 1
  br i1 %52, label %53, label %60

53:                                               ; preds = %50
  %54 = load ptr, ptr %14, align 8
  %55 = load i32, ptr @hf_chld_mode_1x, align 4
  %56 = load ptr, ptr %12, align 8
  %57 = load i32, ptr %15, align 4
  %58 = load i32, ptr %20, align 4
  %59 = call ptr @proto_tree_add_item(ptr noundef %54, i32 noundef %55, ptr noundef %56, i32 noundef %57, i32 noundef %58, i32 noundef 0)
  br label %71

60:                                               ; preds = %50
  %61 = load i32, ptr %22, align 4
  %62 = icmp eq i32 %61, 2
  br i1 %62, label %63, label %70

63:                                               ; preds = %60
  %64 = load ptr, ptr %14, align 8
  %65 = load i32, ptr @hf_chld_mode_2x, align 4
  %66 = load ptr, ptr %12, align 8
  %67 = load i32, ptr %15, align 4
  %68 = load i32, ptr %20, align 4
  %69 = call ptr @proto_tree_add_item(ptr noundef %64, i32 noundef %65, ptr noundef %66, i32 noundef %67, i32 noundef %68, i32 noundef 0)
  br label %70

70:                                               ; preds = %63, %60
  br label %71

71:                                               ; preds = %70, %53
  br label %72

72:                                               ; preds = %71, %43
  %73 = load ptr, ptr %12, align 8
  %74 = load i32, ptr %15, align 4
  %75 = add i32 %74, 1
  %76 = call zeroext i8 @tvb_get_uint8(ptr noundef %73, i32 noundef %75)
  %77 = zext i8 %76 to i32
  %78 = icmp ne i32 %77, 120
  br i1 %78, label %82, label %79

79:                                               ; preds = %72
  %80 = load i32, ptr %22, align 4
  %81 = icmp ugt i32 %80, 4
  br i1 %81, label %82, label %89

82:                                               ; preds = %79, %72
  %83 = load ptr, ptr %14, align 8
  %84 = load ptr, ptr %13, align 8
  %85 = load ptr, ptr %12, align 8
  %86 = load i32, ptr %15, align 4
  %87 = load i32, ptr %20, align 4
  %88 = call ptr @proto_tree_add_expert(ptr noundef %83, ptr noundef %84, ptr noundef @ei_chld_mode, ptr noundef %85, i32 noundef %86, i32 noundef %87)
  br label %89

89:                                               ; preds = %82, %79
  br label %90

90:                                               ; preds = %89, %38
  %91 = load ptr, ptr %14, align 8
  %92 = load i32, ptr @hf_chld_mode, align 4
  %93 = load ptr, ptr %12, align 8
  %94 = load i32, ptr %15, align 4
  %95 = load i32, ptr %20, align 4
  %96 = load i32, ptr %22, align 4
  %97 = call ptr @proto_tree_add_uint(ptr noundef %91, i32 noundef %92, ptr noundef %93, i32 noundef %94, i32 noundef %95, i32 noundef %96)
  store i1 true, ptr %11, align 1
  store i32 1, ptr %23, align 4
  br label %105

98:                                               ; preds = %35, %31, %28
  %99 = load ptr, ptr %14, align 8
  %100 = load i32, ptr @hf_chld_supported_modes, align 4
  %101 = load ptr, ptr %12, align 8
  %102 = load i32, ptr %15, align 4
  %103 = load i32, ptr %20, align 4
  %104 = call ptr @proto_tree_add_item(ptr noundef %99, i32 noundef %100, ptr noundef %101, i32 noundef %102, i32 noundef %103, i32 noundef 0)
  store i1 true, ptr %11, align 1
  store i32 1, ptr %23, align 4
  br label %105

105:                                              ; preds = %98, %90, %27
  call void @llvm.lifetime.end.p0(i64 4, ptr %22) #11
  %106 = load i1, ptr %11, align 1
  ret i1 %106
}