; Function Attrs: null_pointer_is_valid sspstrong uwtable
define internal noundef zeroext i1 @dissect_chld_parameter(ptr noundef %0, ptr noundef %1, ptr noundef %2, i32 noundef %3, i32 noundef %4, i16 noundef zeroext %5, ptr noundef readonly captures(none) %6, i32 noundef %7, i32 noundef %8, ptr readnone captures(none) %9) #0 {
  %11 = icmp eq i32 %4, 2
  br i1 %11, label %12, label %check_chld.exit

12:                                               ; preds = %10
  switch i16 %5, label %check_chld.exit.thread47 [
    i16 15679, label %15
    i16 61, label %15
  ]

check_chld.exit:                                  ; preds = %10
  %13 = icmp eq i32 %4, 1
  %14 = icmp eq i16 %5, 58
  %or.cond5.i = and i1 %13, %14
  br i1 %or.cond5.i, label %.thread, label %check_chld.exit.thread47

15:                                               ; preds = %12, %12
  %16 = icmp eq i16 %5, 61
  %17 = icmp eq i32 %7, 0
  %or.cond4 = and i1 %16, %17
  br i1 %or.cond4, label %18, label %.thread

18:                                               ; preds = %15
  %19 = tail call ptr @wmem_packet_scope()
  %20 = tail call noalias dereferenceable_or_null(2) ptr @wmem_alloc(ptr noundef %19, i64 noundef 2) #11
  %21 = load i8, ptr %6, align 1
  store i8 %21, ptr %20, align 1
  %22 = getelementptr i8, ptr %20, i64 1
  store i8 0, ptr %22, align 1
  %23 = tail call i64 @g_ascii_strtoull(ptr noundef %20, ptr noundef null, i32 noundef 10)
  %24 = trunc i64 %23 to i32
  %25 = icmp sgt i32 %8, 1
  br i1 %25, label %26, label %40

26:                                               ; preds = %18
  %27 = add i32 %3, 1
  %28 = tail call zeroext i8 @tvb_get_uint8(ptr noundef %0, i32 noundef %27)
  %29 = icmp eq i8 %28, 120
  br i1 %29, label %30, label %34

30:                                               ; preds = %26
  switch i32 %24, label %34 [
    i32 1, label %.sink.split
    i32 2, label %31
  ]

31:                                               ; preds = %30
  br label %.sink.split

.sink.split:                                      ; preds = %30, %31
  %hf_chld_mode_1x.sink = phi ptr [ @hf_chld_mode_2x, %31 ], [ @hf_chld_mode_1x, %30 ]
  %32 = load i32, ptr %hf_chld_mode_1x.sink, align 4
  %33 = tail call ptr @proto_tree_add_item(ptr noundef %2, i32 noundef %32, ptr noundef %0, i32 noundef %3, i32 noundef %8, i32 noundef 0)
  br label %34

34:                                               ; preds = %.sink.split, %30, %26
  %35 = tail call zeroext i8 @tvb_get_uint8(ptr noundef %0, i32 noundef %27)
  %36 = icmp ne i8 %35, 120
  %37 = icmp ugt i32 %24, 4
  %or.cond6 = select i1 %36, i1 true, i1 %37
  br i1 %or.cond6, label %38, label %40

38:                                               ; preds = %34
  %39 = tail call ptr @proto_tree_add_expert(ptr noundef %2, ptr noundef %1, ptr noundef nonnull @ei_chld_mode, ptr noundef %0, i32 noundef %3, i32 noundef %8)
  br label %40

40:                                               ; preds = %38, %34, %18
  %41 = load i32, ptr @hf_chld_mode, align 4
  %42 = tail call ptr @proto_tree_add_uint(ptr noundef %2, i32 noundef %41, ptr noundef %0, i32 noundef %3, i32 noundef %8, i32 noundef %24)
  br label %check_chld.exit.thread47

.thread:                                          ; preds = %check_chld.exit, %15
  %43 = load i32, ptr @hf_chld_supported_modes, align 4
  %44 = tail call ptr @proto_tree_add_item(ptr noundef %2, i32 noundef %43, ptr noundef %0, i32 noundef %3, i32 noundef %8, i32 noundef 0)
  br label %check_chld.exit.thread47

check_chld.exit.thread47:                         ; preds = %12, %check_chld.exit, %.thread, %40
  %.0.i45 = phi i1 [ false, %check_chld.exit ], [ true, %.thread ], [ true, %40 ], [ false, %12 ]
  ret i1 %.0.i45
}